
user/_a:     file format elf64-littleriscv


Disassembly of section .text:

0000000000000000 <kill_system_dem>:
#include "kernel/fcntl.h"
#include "kernel/syscall.h"
#include "kernel/memlayout.h"
#include "kernel/riscv.h"

void kill_system_dem(int interval, int loop_size) {
   0:	7139                	addi	sp,sp,-64
   2:	fc06                	sd	ra,56(sp)
   4:	f822                	sd	s0,48(sp)
   6:	f426                	sd	s1,40(sp)
   8:	f04a                	sd	s2,32(sp)
   a:	ec4e                	sd	s3,24(sp)
   c:	e852                	sd	s4,16(sp)
   e:	e456                	sd	s5,8(sp)
  10:	e05a                	sd	s6,0(sp)
  12:	0080                	addi	s0,sp,64
  14:	8a2a                	mv	s4,a0
  16:	892e                	mv	s2,a1
    int pid = getpid();
  18:	00000097          	auipc	ra,0x0
  1c:	438080e7          	jalr	1080(ra) # 450 <getpid>
    for (int i = 0; i < loop_size; i++) {
  20:	05205a63          	blez	s2,74 <kill_system_dem+0x74>
  24:	8aaa                	mv	s5,a0
        if (i % interval == 0 && pid == getpid()) {
            printf("kill system %d/%d completed.\n", i, loop_size);
        }
        if (i == loop_size / 2) {
  26:	01f9599b          	srliw	s3,s2,0x1f
  2a:	012989bb          	addw	s3,s3,s2
  2e:	4019d99b          	sraiw	s3,s3,0x1
    for (int i = 0; i < loop_size; i++) {
  32:	4481                	li	s1,0
            printf("kill system %d/%d completed.\n", i, loop_size);
  34:	00001b17          	auipc	s6,0x1
  38:	8ccb0b13          	addi	s6,s6,-1844 # 900 <malloc+0xea>
  3c:	a031                	j	48 <kill_system_dem+0x48>
        if (i == loop_size / 2) {
  3e:	02998663          	beq	s3,s1,6a <kill_system_dem+0x6a>
    for (int i = 0; i < loop_size; i++) {
  42:	2485                	addiw	s1,s1,1
  44:	02990863          	beq	s2,s1,74 <kill_system_dem+0x74>
        if (i % interval == 0 && pid == getpid()) {
  48:	0344e7bb          	remw	a5,s1,s4
  4c:	fbed                	bnez	a5,3e <kill_system_dem+0x3e>
  4e:	00000097          	auipc	ra,0x0
  52:	402080e7          	jalr	1026(ra) # 450 <getpid>
  56:	ff5514e3          	bne	a0,s5,3e <kill_system_dem+0x3e>
            printf("kill system %d/%d completed.\n", i, loop_size);
  5a:	864a                	mv	a2,s2
  5c:	85a6                	mv	a1,s1
  5e:	855a                	mv	a0,s6
  60:	00000097          	auipc	ra,0x0
  64:	6f8080e7          	jalr	1784(ra) # 758 <printf>
  68:	bfd9                	j	3e <kill_system_dem+0x3e>
            kill_sys();
  6a:	00000097          	auipc	ra,0x0
  6e:	406080e7          	jalr	1030(ra) # 470 <kill_sys>
  72:	bfc1                	j	42 <kill_system_dem+0x42>
        }
    }
    printf("\n");
  74:	00001517          	auipc	a0,0x1
  78:	8ac50513          	addi	a0,a0,-1876 # 920 <malloc+0x10a>
  7c:	00000097          	auipc	ra,0x0
  80:	6dc080e7          	jalr	1756(ra) # 758 <printf>
}
  84:	70e2                	ld	ra,56(sp)
  86:	7442                	ld	s0,48(sp)
  88:	74a2                	ld	s1,40(sp)
  8a:	7902                	ld	s2,32(sp)
  8c:	69e2                	ld	s3,24(sp)
  8e:	6a42                	ld	s4,16(sp)
  90:	6aa2                	ld	s5,8(sp)
  92:	6b02                	ld	s6,0(sp)
  94:	6121                	addi	sp,sp,64
  96:	8082                	ret

0000000000000098 <pause_system_dem>:

void pause_system_dem(int interval, int pause_seconds, int loop_size) {
  98:	715d                	addi	sp,sp,-80
  9a:	e486                	sd	ra,72(sp)
  9c:	e0a2                	sd	s0,64(sp)
  9e:	fc26                	sd	s1,56(sp)
  a0:	f84a                	sd	s2,48(sp)
  a2:	f44e                	sd	s3,40(sp)
  a4:	f052                	sd	s4,32(sp)
  a6:	ec56                	sd	s5,24(sp)
  a8:	e85a                	sd	s6,16(sp)
  aa:	e45e                	sd	s7,8(sp)
  ac:	0880                	addi	s0,sp,80
  ae:	8a2a                	mv	s4,a0
  b0:	8b2e                	mv	s6,a1
  b2:	8932                	mv	s2,a2
    int pid = getpid();
  b4:	00000097          	auipc	ra,0x0
  b8:	39c080e7          	jalr	924(ra) # 450 <getpid>
    for (int i = 0; i < loop_size; i++) {
  bc:	05205b63          	blez	s2,112 <pause_system_dem+0x7a>
  c0:	8aaa                	mv	s5,a0
        if (i % interval == 0 && pid == getpid()) {
            printf("pause system %d/%d completed.\n", i, loop_size);
        }
        if (i == loop_size / 2) {
  c2:	01f9599b          	srliw	s3,s2,0x1f
  c6:	012989bb          	addw	s3,s3,s2
  ca:	4019d99b          	sraiw	s3,s3,0x1
    for (int i = 0; i < loop_size; i++) {
  ce:	4481                	li	s1,0
            printf("pause system %d/%d completed.\n", i, loop_size);
  d0:	00001b97          	auipc	s7,0x1
  d4:	858b8b93          	addi	s7,s7,-1960 # 928 <malloc+0x112>
  d8:	a031                	j	e4 <pause_system_dem+0x4c>
        if (i == loop_size / 2) {
  da:	02998663          	beq	s3,s1,106 <pause_system_dem+0x6e>
    for (int i = 0; i < loop_size; i++) {
  de:	2485                	addiw	s1,s1,1
  e0:	02990963          	beq	s2,s1,112 <pause_system_dem+0x7a>
        if (i % interval == 0 && pid == getpid()) {
  e4:	0344e7bb          	remw	a5,s1,s4
  e8:	fbed                	bnez	a5,da <pause_system_dem+0x42>
  ea:	00000097          	auipc	ra,0x0
  ee:	366080e7          	jalr	870(ra) # 450 <getpid>
  f2:	ff5514e3          	bne	a0,s5,da <pause_system_dem+0x42>
            printf("pause system %d/%d completed.\n", i, loop_size);
  f6:	864a                	mv	a2,s2
  f8:	85a6                	mv	a1,s1
  fa:	855e                	mv	a0,s7
  fc:	00000097          	auipc	ra,0x0
 100:	65c080e7          	jalr	1628(ra) # 758 <printf>
 104:	bfd9                	j	da <pause_system_dem+0x42>
            pause_sys(pause_seconds);
 106:	855a                	mv	a0,s6
 108:	00000097          	auipc	ra,0x0
 10c:	370080e7          	jalr	880(ra) # 478 <pause_sys>
 110:	b7f9                	j	de <pause_system_dem+0x46>
        }
    }
    printf("\n");
 112:	00001517          	auipc	a0,0x1
 116:	80e50513          	addi	a0,a0,-2034 # 920 <malloc+0x10a>
 11a:	00000097          	auipc	ra,0x0
 11e:	63e080e7          	jalr	1598(ra) # 758 <printf>
}
 122:	60a6                	ld	ra,72(sp)
 124:	6406                	ld	s0,64(sp)
 126:	74e2                	ld	s1,56(sp)
 128:	7942                	ld	s2,48(sp)
 12a:	79a2                	ld	s3,40(sp)
 12c:	7a02                	ld	s4,32(sp)
 12e:	6ae2                	ld	s5,24(sp)
 130:	6b42                	ld	s6,16(sp)
 132:	6ba2                	ld	s7,8(sp)
 134:	6161                	addi	sp,sp,80
 136:	8082                	ret

0000000000000138 <main>:

int
main(int argc, char *argv[])
{
 138:	1141                	addi	sp,sp,-16
 13a:	e406                	sd	ra,8(sp)
 13c:	e022                	sd	s0,0(sp)
 13e:	0800                	addi	s0,sp,16
    pause_system_dem(10, 4, 100);
 140:	06400613          	li	a2,100
 144:	4591                	li	a1,4
 146:	4529                	li	a0,10
 148:	00000097          	auipc	ra,0x0
 14c:	f50080e7          	jalr	-176(ra) # 98 <pause_system_dem>
    //kill_system_dem(10, 100);
    exit(0);
 150:	4501                	li	a0,0
 152:	00000097          	auipc	ra,0x0
 156:	27e080e7          	jalr	638(ra) # 3d0 <exit>

000000000000015a <strcpy>:
#include "kernel/fcntl.h"
#include "user/user.h"

char*
strcpy(char *s, const char *t)
{
 15a:	1141                	addi	sp,sp,-16
 15c:	e422                	sd	s0,8(sp)
 15e:	0800                	addi	s0,sp,16
  char *os;

  os = s;
  while((*s++ = *t++) != 0)
 160:	87aa                	mv	a5,a0
 162:	0585                	addi	a1,a1,1
 164:	0785                	addi	a5,a5,1
 166:	fff5c703          	lbu	a4,-1(a1)
 16a:	fee78fa3          	sb	a4,-1(a5)
 16e:	fb75                	bnez	a4,162 <strcpy+0x8>
    ;
  return os;
}
 170:	6422                	ld	s0,8(sp)
 172:	0141                	addi	sp,sp,16
 174:	8082                	ret

0000000000000176 <strcmp>:

int
strcmp(const char *p, const char *q)
{
 176:	1141                	addi	sp,sp,-16
 178:	e422                	sd	s0,8(sp)
 17a:	0800                	addi	s0,sp,16
  while(*p && *p == *q)
 17c:	00054783          	lbu	a5,0(a0)
 180:	cb91                	beqz	a5,194 <strcmp+0x1e>
 182:	0005c703          	lbu	a4,0(a1)
 186:	00f71763          	bne	a4,a5,194 <strcmp+0x1e>
    p++, q++;
 18a:	0505                	addi	a0,a0,1
 18c:	0585                	addi	a1,a1,1
  while(*p && *p == *q)
 18e:	00054783          	lbu	a5,0(a0)
 192:	fbe5                	bnez	a5,182 <strcmp+0xc>
  return (uchar)*p - (uchar)*q;
 194:	0005c503          	lbu	a0,0(a1)
}
 198:	40a7853b          	subw	a0,a5,a0
 19c:	6422                	ld	s0,8(sp)
 19e:	0141                	addi	sp,sp,16
 1a0:	8082                	ret

00000000000001a2 <strlen>:

uint
strlen(const char *s)
{
 1a2:	1141                	addi	sp,sp,-16
 1a4:	e422                	sd	s0,8(sp)
 1a6:	0800                	addi	s0,sp,16
  int n;

  for(n = 0; s[n]; n++)
 1a8:	00054783          	lbu	a5,0(a0)
 1ac:	cf91                	beqz	a5,1c8 <strlen+0x26>
 1ae:	0505                	addi	a0,a0,1
 1b0:	87aa                	mv	a5,a0
 1b2:	4685                	li	a3,1
 1b4:	9e89                	subw	a3,a3,a0
 1b6:	00f6853b          	addw	a0,a3,a5
 1ba:	0785                	addi	a5,a5,1
 1bc:	fff7c703          	lbu	a4,-1(a5)
 1c0:	fb7d                	bnez	a4,1b6 <strlen+0x14>
    ;
  return n;
}
 1c2:	6422                	ld	s0,8(sp)
 1c4:	0141                	addi	sp,sp,16
 1c6:	8082                	ret
  for(n = 0; s[n]; n++)
 1c8:	4501                	li	a0,0
 1ca:	bfe5                	j	1c2 <strlen+0x20>

00000000000001cc <memset>:

void*
memset(void *dst, int c, uint n)
{
 1cc:	1141                	addi	sp,sp,-16
 1ce:	e422                	sd	s0,8(sp)
 1d0:	0800                	addi	s0,sp,16
  char *cdst = (char *) dst;
  int i;
  for(i = 0; i < n; i++){
 1d2:	ce09                	beqz	a2,1ec <memset+0x20>
 1d4:	87aa                	mv	a5,a0
 1d6:	fff6071b          	addiw	a4,a2,-1
 1da:	1702                	slli	a4,a4,0x20
 1dc:	9301                	srli	a4,a4,0x20
 1de:	0705                	addi	a4,a4,1
 1e0:	972a                	add	a4,a4,a0
    cdst[i] = c;
 1e2:	00b78023          	sb	a1,0(a5)
  for(i = 0; i < n; i++){
 1e6:	0785                	addi	a5,a5,1
 1e8:	fee79de3          	bne	a5,a4,1e2 <memset+0x16>
  }
  return dst;
}
 1ec:	6422                	ld	s0,8(sp)
 1ee:	0141                	addi	sp,sp,16
 1f0:	8082                	ret

00000000000001f2 <strchr>:

char*
strchr(const char *s, char c)
{
 1f2:	1141                	addi	sp,sp,-16
 1f4:	e422                	sd	s0,8(sp)
 1f6:	0800                	addi	s0,sp,16
  for(; *s; s++)
 1f8:	00054783          	lbu	a5,0(a0)
 1fc:	cb99                	beqz	a5,212 <strchr+0x20>
    if(*s == c)
 1fe:	00f58763          	beq	a1,a5,20c <strchr+0x1a>
  for(; *s; s++)
 202:	0505                	addi	a0,a0,1
 204:	00054783          	lbu	a5,0(a0)
 208:	fbfd                	bnez	a5,1fe <strchr+0xc>
      return (char*)s;
  return 0;
 20a:	4501                	li	a0,0
}
 20c:	6422                	ld	s0,8(sp)
 20e:	0141                	addi	sp,sp,16
 210:	8082                	ret
  return 0;
 212:	4501                	li	a0,0
 214:	bfe5                	j	20c <strchr+0x1a>

0000000000000216 <gets>:

char*
gets(char *buf, int max)
{
 216:	711d                	addi	sp,sp,-96
 218:	ec86                	sd	ra,88(sp)
 21a:	e8a2                	sd	s0,80(sp)
 21c:	e4a6                	sd	s1,72(sp)
 21e:	e0ca                	sd	s2,64(sp)
 220:	fc4e                	sd	s3,56(sp)
 222:	f852                	sd	s4,48(sp)
 224:	f456                	sd	s5,40(sp)
 226:	f05a                	sd	s6,32(sp)
 228:	ec5e                	sd	s7,24(sp)
 22a:	1080                	addi	s0,sp,96
 22c:	8baa                	mv	s7,a0
 22e:	8a2e                	mv	s4,a1
  int i, cc;
  char c;

  for(i=0; i+1 < max; ){
 230:	892a                	mv	s2,a0
 232:	4481                	li	s1,0
    cc = read(0, &c, 1);
    if(cc < 1)
      break;
    buf[i++] = c;
    if(c == '\n' || c == '\r')
 234:	4aa9                	li	s5,10
 236:	4b35                	li	s6,13
  for(i=0; i+1 < max; ){
 238:	89a6                	mv	s3,s1
 23a:	2485                	addiw	s1,s1,1
 23c:	0344d863          	bge	s1,s4,26c <gets+0x56>
    cc = read(0, &c, 1);
 240:	4605                	li	a2,1
 242:	faf40593          	addi	a1,s0,-81
 246:	4501                	li	a0,0
 248:	00000097          	auipc	ra,0x0
 24c:	1a0080e7          	jalr	416(ra) # 3e8 <read>
    if(cc < 1)
 250:	00a05e63          	blez	a0,26c <gets+0x56>
    buf[i++] = c;
 254:	faf44783          	lbu	a5,-81(s0)
 258:	00f90023          	sb	a5,0(s2)
    if(c == '\n' || c == '\r')
 25c:	01578763          	beq	a5,s5,26a <gets+0x54>
 260:	0905                	addi	s2,s2,1
 262:	fd679be3          	bne	a5,s6,238 <gets+0x22>
  for(i=0; i+1 < max; ){
 266:	89a6                	mv	s3,s1
 268:	a011                	j	26c <gets+0x56>
 26a:	89a6                	mv	s3,s1
      break;
  }
  buf[i] = '\0';
 26c:	99de                	add	s3,s3,s7
 26e:	00098023          	sb	zero,0(s3)
  return buf;
}
 272:	855e                	mv	a0,s7
 274:	60e6                	ld	ra,88(sp)
 276:	6446                	ld	s0,80(sp)
 278:	64a6                	ld	s1,72(sp)
 27a:	6906                	ld	s2,64(sp)
 27c:	79e2                	ld	s3,56(sp)
 27e:	7a42                	ld	s4,48(sp)
 280:	7aa2                	ld	s5,40(sp)
 282:	7b02                	ld	s6,32(sp)
 284:	6be2                	ld	s7,24(sp)
 286:	6125                	addi	sp,sp,96
 288:	8082                	ret

000000000000028a <stat>:

int
stat(const char *n, struct stat *st)
{
 28a:	1101                	addi	sp,sp,-32
 28c:	ec06                	sd	ra,24(sp)
 28e:	e822                	sd	s0,16(sp)
 290:	e426                	sd	s1,8(sp)
 292:	e04a                	sd	s2,0(sp)
 294:	1000                	addi	s0,sp,32
 296:	892e                	mv	s2,a1
  int fd;
  int r;

  fd = open(n, O_RDONLY);
 298:	4581                	li	a1,0
 29a:	00000097          	auipc	ra,0x0
 29e:	176080e7          	jalr	374(ra) # 410 <open>
  if(fd < 0)
 2a2:	02054563          	bltz	a0,2cc <stat+0x42>
 2a6:	84aa                	mv	s1,a0
    return -1;
  r = fstat(fd, st);
 2a8:	85ca                	mv	a1,s2
 2aa:	00000097          	auipc	ra,0x0
 2ae:	17e080e7          	jalr	382(ra) # 428 <fstat>
 2b2:	892a                	mv	s2,a0
  close(fd);
 2b4:	8526                	mv	a0,s1
 2b6:	00000097          	auipc	ra,0x0
 2ba:	142080e7          	jalr	322(ra) # 3f8 <close>
  return r;
}
 2be:	854a                	mv	a0,s2
 2c0:	60e2                	ld	ra,24(sp)
 2c2:	6442                	ld	s0,16(sp)
 2c4:	64a2                	ld	s1,8(sp)
 2c6:	6902                	ld	s2,0(sp)
 2c8:	6105                	addi	sp,sp,32
 2ca:	8082                	ret
    return -1;
 2cc:	597d                	li	s2,-1
 2ce:	bfc5                	j	2be <stat+0x34>

00000000000002d0 <atoi>:

int
atoi(const char *s)
{
 2d0:	1141                	addi	sp,sp,-16
 2d2:	e422                	sd	s0,8(sp)
 2d4:	0800                	addi	s0,sp,16
  int n;

  n = 0;
  while('0' <= *s && *s <= '9')
 2d6:	00054603          	lbu	a2,0(a0)
 2da:	fd06079b          	addiw	a5,a2,-48
 2de:	0ff7f793          	andi	a5,a5,255
 2e2:	4725                	li	a4,9
 2e4:	02f76963          	bltu	a4,a5,316 <atoi+0x46>
 2e8:	86aa                	mv	a3,a0
  n = 0;
 2ea:	4501                	li	a0,0
  while('0' <= *s && *s <= '9')
 2ec:	45a5                	li	a1,9
    n = n*10 + *s++ - '0';
 2ee:	0685                	addi	a3,a3,1
 2f0:	0025179b          	slliw	a5,a0,0x2
 2f4:	9fa9                	addw	a5,a5,a0
 2f6:	0017979b          	slliw	a5,a5,0x1
 2fa:	9fb1                	addw	a5,a5,a2
 2fc:	fd07851b          	addiw	a0,a5,-48
  while('0' <= *s && *s <= '9')
 300:	0006c603          	lbu	a2,0(a3)
 304:	fd06071b          	addiw	a4,a2,-48
 308:	0ff77713          	andi	a4,a4,255
 30c:	fee5f1e3          	bgeu	a1,a4,2ee <atoi+0x1e>
  return n;
}
 310:	6422                	ld	s0,8(sp)
 312:	0141                	addi	sp,sp,16
 314:	8082                	ret
  n = 0;
 316:	4501                	li	a0,0
 318:	bfe5                	j	310 <atoi+0x40>

000000000000031a <memmove>:

void*
memmove(void *vdst, const void *vsrc, int n)
{
 31a:	1141                	addi	sp,sp,-16
 31c:	e422                	sd	s0,8(sp)
 31e:	0800                	addi	s0,sp,16
  char *dst;
  const char *src;

  dst = vdst;
  src = vsrc;
  if (src > dst) {
 320:	02b57663          	bgeu	a0,a1,34c <memmove+0x32>
    while(n-- > 0)
 324:	02c05163          	blez	a2,346 <memmove+0x2c>
 328:	fff6079b          	addiw	a5,a2,-1
 32c:	1782                	slli	a5,a5,0x20
 32e:	9381                	srli	a5,a5,0x20
 330:	0785                	addi	a5,a5,1
 332:	97aa                	add	a5,a5,a0
  dst = vdst;
 334:	872a                	mv	a4,a0
      *dst++ = *src++;
 336:	0585                	addi	a1,a1,1
 338:	0705                	addi	a4,a4,1
 33a:	fff5c683          	lbu	a3,-1(a1)
 33e:	fed70fa3          	sb	a3,-1(a4)
    while(n-- > 0)
 342:	fee79ae3          	bne	a5,a4,336 <memmove+0x1c>
    src += n;
    while(n-- > 0)
      *--dst = *--src;
  }
  return vdst;
}
 346:	6422                	ld	s0,8(sp)
 348:	0141                	addi	sp,sp,16
 34a:	8082                	ret
    dst += n;
 34c:	00c50733          	add	a4,a0,a2
    src += n;
 350:	95b2                	add	a1,a1,a2
    while(n-- > 0)
 352:	fec05ae3          	blez	a2,346 <memmove+0x2c>
 356:	fff6079b          	addiw	a5,a2,-1
 35a:	1782                	slli	a5,a5,0x20
 35c:	9381                	srli	a5,a5,0x20
 35e:	fff7c793          	not	a5,a5
 362:	97ba                	add	a5,a5,a4
      *--dst = *--src;
 364:	15fd                	addi	a1,a1,-1
 366:	177d                	addi	a4,a4,-1
 368:	0005c683          	lbu	a3,0(a1)
 36c:	00d70023          	sb	a3,0(a4)
    while(n-- > 0)
 370:	fee79ae3          	bne	a5,a4,364 <memmove+0x4a>
 374:	bfc9                	j	346 <memmove+0x2c>

0000000000000376 <memcmp>:

int
memcmp(const void *s1, const void *s2, uint n)
{
 376:	1141                	addi	sp,sp,-16
 378:	e422                	sd	s0,8(sp)
 37a:	0800                	addi	s0,sp,16
  const char *p1 = s1, *p2 = s2;
  while (n-- > 0) {
 37c:	ca05                	beqz	a2,3ac <memcmp+0x36>
 37e:	fff6069b          	addiw	a3,a2,-1
 382:	1682                	slli	a3,a3,0x20
 384:	9281                	srli	a3,a3,0x20
 386:	0685                	addi	a3,a3,1
 388:	96aa                	add	a3,a3,a0
    if (*p1 != *p2) {
 38a:	00054783          	lbu	a5,0(a0)
 38e:	0005c703          	lbu	a4,0(a1)
 392:	00e79863          	bne	a5,a4,3a2 <memcmp+0x2c>
      return *p1 - *p2;
    }
    p1++;
 396:	0505                	addi	a0,a0,1
    p2++;
 398:	0585                	addi	a1,a1,1
  while (n-- > 0) {
 39a:	fed518e3          	bne	a0,a3,38a <memcmp+0x14>
  }
  return 0;
 39e:	4501                	li	a0,0
 3a0:	a019                	j	3a6 <memcmp+0x30>
      return *p1 - *p2;
 3a2:	40e7853b          	subw	a0,a5,a4
}
 3a6:	6422                	ld	s0,8(sp)
 3a8:	0141                	addi	sp,sp,16
 3aa:	8082                	ret
  return 0;
 3ac:	4501                	li	a0,0
 3ae:	bfe5                	j	3a6 <memcmp+0x30>

00000000000003b0 <memcpy>:

void *
memcpy(void *dst, const void *src, uint n)
{
 3b0:	1141                	addi	sp,sp,-16
 3b2:	e406                	sd	ra,8(sp)
 3b4:	e022                	sd	s0,0(sp)
 3b6:	0800                	addi	s0,sp,16
  return memmove(dst, src, n);
 3b8:	00000097          	auipc	ra,0x0
 3bc:	f62080e7          	jalr	-158(ra) # 31a <memmove>
}
 3c0:	60a2                	ld	ra,8(sp)
 3c2:	6402                	ld	s0,0(sp)
 3c4:	0141                	addi	sp,sp,16
 3c6:	8082                	ret

00000000000003c8 <fork>:
# generated by usys.pl - do not edit
#include "kernel/syscall.h"
.global fork
fork:
 li a7, SYS_fork
 3c8:	4885                	li	a7,1
 ecall
 3ca:	00000073          	ecall
 ret
 3ce:	8082                	ret

00000000000003d0 <exit>:
.global exit
exit:
 li a7, SYS_exit
 3d0:	4889                	li	a7,2
 ecall
 3d2:	00000073          	ecall
 ret
 3d6:	8082                	ret

00000000000003d8 <wait>:
.global wait
wait:
 li a7, SYS_wait
 3d8:	488d                	li	a7,3
 ecall
 3da:	00000073          	ecall
 ret
 3de:	8082                	ret

00000000000003e0 <pipe>:
.global pipe
pipe:
 li a7, SYS_pipe
 3e0:	4891                	li	a7,4
 ecall
 3e2:	00000073          	ecall
 ret
 3e6:	8082                	ret

00000000000003e8 <read>:
.global read
read:
 li a7, SYS_read
 3e8:	4895                	li	a7,5
 ecall
 3ea:	00000073          	ecall
 ret
 3ee:	8082                	ret

00000000000003f0 <write>:
.global write
write:
 li a7, SYS_write
 3f0:	48c1                	li	a7,16
 ecall
 3f2:	00000073          	ecall
 ret
 3f6:	8082                	ret

00000000000003f8 <close>:
.global close
close:
 li a7, SYS_close
 3f8:	48d5                	li	a7,21
 ecall
 3fa:	00000073          	ecall
 ret
 3fe:	8082                	ret

0000000000000400 <kill>:
.global kill
kill:
 li a7, SYS_kill
 400:	4899                	li	a7,6
 ecall
 402:	00000073          	ecall
 ret
 406:	8082                	ret

0000000000000408 <exec>:
.global exec
exec:
 li a7, SYS_exec
 408:	489d                	li	a7,7
 ecall
 40a:	00000073          	ecall
 ret
 40e:	8082                	ret

0000000000000410 <open>:
.global open
open:
 li a7, SYS_open
 410:	48bd                	li	a7,15
 ecall
 412:	00000073          	ecall
 ret
 416:	8082                	ret

0000000000000418 <mknod>:
.global mknod
mknod:
 li a7, SYS_mknod
 418:	48c5                	li	a7,17
 ecall
 41a:	00000073          	ecall
 ret
 41e:	8082                	ret

0000000000000420 <unlink>:
.global unlink
unlink:
 li a7, SYS_unlink
 420:	48c9                	li	a7,18
 ecall
 422:	00000073          	ecall
 ret
 426:	8082                	ret

0000000000000428 <fstat>:
.global fstat
fstat:
 li a7, SYS_fstat
 428:	48a1                	li	a7,8
 ecall
 42a:	00000073          	ecall
 ret
 42e:	8082                	ret

0000000000000430 <link>:
.global link
link:
 li a7, SYS_link
 430:	48cd                	li	a7,19
 ecall
 432:	00000073          	ecall
 ret
 436:	8082                	ret

0000000000000438 <mkdir>:
.global mkdir
mkdir:
 li a7, SYS_mkdir
 438:	48d1                	li	a7,20
 ecall
 43a:	00000073          	ecall
 ret
 43e:	8082                	ret

0000000000000440 <chdir>:
.global chdir
chdir:
 li a7, SYS_chdir
 440:	48a5                	li	a7,9
 ecall
 442:	00000073          	ecall
 ret
 446:	8082                	ret

0000000000000448 <dup>:
.global dup
dup:
 li a7, SYS_dup
 448:	48a9                	li	a7,10
 ecall
 44a:	00000073          	ecall
 ret
 44e:	8082                	ret

0000000000000450 <getpid>:
.global getpid
getpid:
 li a7, SYS_getpid
 450:	48ad                	li	a7,11
 ecall
 452:	00000073          	ecall
 ret
 456:	8082                	ret

0000000000000458 <sbrk>:
.global sbrk
sbrk:
 li a7, SYS_sbrk
 458:	48b1                	li	a7,12
 ecall
 45a:	00000073          	ecall
 ret
 45e:	8082                	ret

0000000000000460 <sleep>:
.global sleep
sleep:
 li a7, SYS_sleep
 460:	48b5                	li	a7,13
 ecall
 462:	00000073          	ecall
 ret
 466:	8082                	ret

0000000000000468 <uptime>:
.global uptime
uptime:
 li a7, SYS_uptime
 468:	48b9                	li	a7,14
 ecall
 46a:	00000073          	ecall
 ret
 46e:	8082                	ret

0000000000000470 <kill_sys>:
.global kill_sys
kill_sys:
 li a7, SYS_kill_sys
 470:	48d9                	li	a7,22
 ecall
 472:	00000073          	ecall
 ret
 476:	8082                	ret

0000000000000478 <pause_sys>:
.global pause_sys
pause_sys:
 li a7, SYS_pause_sys
 478:	48dd                	li	a7,23
 ecall
 47a:	00000073          	ecall
 ret
 47e:	8082                	ret

0000000000000480 <putc>:

static char digits[] = "0123456789ABCDEF";

static void
putc(int fd, char c)
{
 480:	1101                	addi	sp,sp,-32
 482:	ec06                	sd	ra,24(sp)
 484:	e822                	sd	s0,16(sp)
 486:	1000                	addi	s0,sp,32
 488:	feb407a3          	sb	a1,-17(s0)
  write(fd, &c, 1);
 48c:	4605                	li	a2,1
 48e:	fef40593          	addi	a1,s0,-17
 492:	00000097          	auipc	ra,0x0
 496:	f5e080e7          	jalr	-162(ra) # 3f0 <write>
}
 49a:	60e2                	ld	ra,24(sp)
 49c:	6442                	ld	s0,16(sp)
 49e:	6105                	addi	sp,sp,32
 4a0:	8082                	ret

00000000000004a2 <printint>:

static void
printint(int fd, int xx, int base, int sgn)
{
 4a2:	7139                	addi	sp,sp,-64
 4a4:	fc06                	sd	ra,56(sp)
 4a6:	f822                	sd	s0,48(sp)
 4a8:	f426                	sd	s1,40(sp)
 4aa:	f04a                	sd	s2,32(sp)
 4ac:	ec4e                	sd	s3,24(sp)
 4ae:	0080                	addi	s0,sp,64
 4b0:	84aa                	mv	s1,a0
  char buf[16];
  int i, neg;
  uint x;

  neg = 0;
  if(sgn && xx < 0){
 4b2:	c299                	beqz	a3,4b8 <printint+0x16>
 4b4:	0805c863          	bltz	a1,544 <printint+0xa2>
    neg = 1;
    x = -xx;
  } else {
    x = xx;
 4b8:	2581                	sext.w	a1,a1
  neg = 0;
 4ba:	4881                	li	a7,0
 4bc:	fc040693          	addi	a3,s0,-64
  }

  i = 0;
 4c0:	4701                	li	a4,0
  do{
    buf[i++] = digits[x % base];
 4c2:	2601                	sext.w	a2,a2
 4c4:	00000517          	auipc	a0,0x0
 4c8:	48c50513          	addi	a0,a0,1164 # 950 <digits>
 4cc:	883a                	mv	a6,a4
 4ce:	2705                	addiw	a4,a4,1
 4d0:	02c5f7bb          	remuw	a5,a1,a2
 4d4:	1782                	slli	a5,a5,0x20
 4d6:	9381                	srli	a5,a5,0x20
 4d8:	97aa                	add	a5,a5,a0
 4da:	0007c783          	lbu	a5,0(a5)
 4de:	00f68023          	sb	a5,0(a3)
  }while((x /= base) != 0);
 4e2:	0005879b          	sext.w	a5,a1
 4e6:	02c5d5bb          	divuw	a1,a1,a2
 4ea:	0685                	addi	a3,a3,1
 4ec:	fec7f0e3          	bgeu	a5,a2,4cc <printint+0x2a>
  if(neg)
 4f0:	00088b63          	beqz	a7,506 <printint+0x64>
    buf[i++] = '-';
 4f4:	fd040793          	addi	a5,s0,-48
 4f8:	973e                	add	a4,a4,a5
 4fa:	02d00793          	li	a5,45
 4fe:	fef70823          	sb	a5,-16(a4)
 502:	0028071b          	addiw	a4,a6,2

  while(--i >= 0)
 506:	02e05863          	blez	a4,536 <printint+0x94>
 50a:	fc040793          	addi	a5,s0,-64
 50e:	00e78933          	add	s2,a5,a4
 512:	fff78993          	addi	s3,a5,-1
 516:	99ba                	add	s3,s3,a4
 518:	377d                	addiw	a4,a4,-1
 51a:	1702                	slli	a4,a4,0x20
 51c:	9301                	srli	a4,a4,0x20
 51e:	40e989b3          	sub	s3,s3,a4
    putc(fd, buf[i]);
 522:	fff94583          	lbu	a1,-1(s2)
 526:	8526                	mv	a0,s1
 528:	00000097          	auipc	ra,0x0
 52c:	f58080e7          	jalr	-168(ra) # 480 <putc>
  while(--i >= 0)
 530:	197d                	addi	s2,s2,-1
 532:	ff3918e3          	bne	s2,s3,522 <printint+0x80>
}
 536:	70e2                	ld	ra,56(sp)
 538:	7442                	ld	s0,48(sp)
 53a:	74a2                	ld	s1,40(sp)
 53c:	7902                	ld	s2,32(sp)
 53e:	69e2                	ld	s3,24(sp)
 540:	6121                	addi	sp,sp,64
 542:	8082                	ret
    x = -xx;
 544:	40b005bb          	negw	a1,a1
    neg = 1;
 548:	4885                	li	a7,1
    x = -xx;
 54a:	bf8d                	j	4bc <printint+0x1a>

000000000000054c <vprintf>:
}

// Print to the given fd. Only understands %d, %x, %p, %s.
void
vprintf(int fd, const char *fmt, va_list ap)
{
 54c:	7119                	addi	sp,sp,-128
 54e:	fc86                	sd	ra,120(sp)
 550:	f8a2                	sd	s0,112(sp)
 552:	f4a6                	sd	s1,104(sp)
 554:	f0ca                	sd	s2,96(sp)
 556:	ecce                	sd	s3,88(sp)
 558:	e8d2                	sd	s4,80(sp)
 55a:	e4d6                	sd	s5,72(sp)
 55c:	e0da                	sd	s6,64(sp)
 55e:	fc5e                	sd	s7,56(sp)
 560:	f862                	sd	s8,48(sp)
 562:	f466                	sd	s9,40(sp)
 564:	f06a                	sd	s10,32(sp)
 566:	ec6e                	sd	s11,24(sp)
 568:	0100                	addi	s0,sp,128
  char *s;
  int c, i, state;

  state = 0;
  for(i = 0; fmt[i]; i++){
 56a:	0005c903          	lbu	s2,0(a1)
 56e:	18090f63          	beqz	s2,70c <vprintf+0x1c0>
 572:	8aaa                	mv	s5,a0
 574:	8b32                	mv	s6,a2
 576:	00158493          	addi	s1,a1,1
  state = 0;
 57a:	4981                	li	s3,0
      if(c == '%'){
        state = '%';
      } else {
        putc(fd, c);
      }
    } else if(state == '%'){
 57c:	02500a13          	li	s4,37
      if(c == 'd'){
 580:	06400c13          	li	s8,100
        printint(fd, va_arg(ap, int), 10, 1);
      } else if(c == 'l') {
 584:	06c00c93          	li	s9,108
        printint(fd, va_arg(ap, uint64), 10, 0);
      } else if(c == 'x') {
 588:	07800d13          	li	s10,120
        printint(fd, va_arg(ap, int), 16, 0);
      } else if(c == 'p') {
 58c:	07000d93          	li	s11,112
    putc(fd, digits[x >> (sizeof(uint64) * 8 - 4)]);
 590:	00000b97          	auipc	s7,0x0
 594:	3c0b8b93          	addi	s7,s7,960 # 950 <digits>
 598:	a839                	j	5b6 <vprintf+0x6a>
        putc(fd, c);
 59a:	85ca                	mv	a1,s2
 59c:	8556                	mv	a0,s5
 59e:	00000097          	auipc	ra,0x0
 5a2:	ee2080e7          	jalr	-286(ra) # 480 <putc>
 5a6:	a019                	j	5ac <vprintf+0x60>
    } else if(state == '%'){
 5a8:	01498f63          	beq	s3,s4,5c6 <vprintf+0x7a>
  for(i = 0; fmt[i]; i++){
 5ac:	0485                	addi	s1,s1,1
 5ae:	fff4c903          	lbu	s2,-1(s1)
 5b2:	14090d63          	beqz	s2,70c <vprintf+0x1c0>
    c = fmt[i] & 0xff;
 5b6:	0009079b          	sext.w	a5,s2
    if(state == 0){
 5ba:	fe0997e3          	bnez	s3,5a8 <vprintf+0x5c>
      if(c == '%'){
 5be:	fd479ee3          	bne	a5,s4,59a <vprintf+0x4e>
        state = '%';
 5c2:	89be                	mv	s3,a5
 5c4:	b7e5                	j	5ac <vprintf+0x60>
      if(c == 'd'){
 5c6:	05878063          	beq	a5,s8,606 <vprintf+0xba>
      } else if(c == 'l') {
 5ca:	05978c63          	beq	a5,s9,622 <vprintf+0xd6>
      } else if(c == 'x') {
 5ce:	07a78863          	beq	a5,s10,63e <vprintf+0xf2>
      } else if(c == 'p') {
 5d2:	09b78463          	beq	a5,s11,65a <vprintf+0x10e>
        printptr(fd, va_arg(ap, uint64));
      } else if(c == 's'){
 5d6:	07300713          	li	a4,115
 5da:	0ce78663          	beq	a5,a4,6a6 <vprintf+0x15a>
          s = "(null)";
        while(*s != 0){
          putc(fd, *s);
          s++;
        }
      } else if(c == 'c'){
 5de:	06300713          	li	a4,99
 5e2:	0ee78e63          	beq	a5,a4,6de <vprintf+0x192>
        putc(fd, va_arg(ap, uint));
      } else if(c == '%'){
 5e6:	11478863          	beq	a5,s4,6f6 <vprintf+0x1aa>
        putc(fd, c);
      } else {
        // Unknown % sequence.  Print it to draw attention.
        putc(fd, '%');
 5ea:	85d2                	mv	a1,s4
 5ec:	8556                	mv	a0,s5
 5ee:	00000097          	auipc	ra,0x0
 5f2:	e92080e7          	jalr	-366(ra) # 480 <putc>
        putc(fd, c);
 5f6:	85ca                	mv	a1,s2
 5f8:	8556                	mv	a0,s5
 5fa:	00000097          	auipc	ra,0x0
 5fe:	e86080e7          	jalr	-378(ra) # 480 <putc>
      }
      state = 0;
 602:	4981                	li	s3,0
 604:	b765                	j	5ac <vprintf+0x60>
        printint(fd, va_arg(ap, int), 10, 1);
 606:	008b0913          	addi	s2,s6,8
 60a:	4685                	li	a3,1
 60c:	4629                	li	a2,10
 60e:	000b2583          	lw	a1,0(s6)
 612:	8556                	mv	a0,s5
 614:	00000097          	auipc	ra,0x0
 618:	e8e080e7          	jalr	-370(ra) # 4a2 <printint>
 61c:	8b4a                	mv	s6,s2
      state = 0;
 61e:	4981                	li	s3,0
 620:	b771                	j	5ac <vprintf+0x60>
        printint(fd, va_arg(ap, uint64), 10, 0);
 622:	008b0913          	addi	s2,s6,8
 626:	4681                	li	a3,0
 628:	4629                	li	a2,10
 62a:	000b2583          	lw	a1,0(s6)
 62e:	8556                	mv	a0,s5
 630:	00000097          	auipc	ra,0x0
 634:	e72080e7          	jalr	-398(ra) # 4a2 <printint>
 638:	8b4a                	mv	s6,s2
      state = 0;
 63a:	4981                	li	s3,0
 63c:	bf85                	j	5ac <vprintf+0x60>
        printint(fd, va_arg(ap, int), 16, 0);
 63e:	008b0913          	addi	s2,s6,8
 642:	4681                	li	a3,0
 644:	4641                	li	a2,16
 646:	000b2583          	lw	a1,0(s6)
 64a:	8556                	mv	a0,s5
 64c:	00000097          	auipc	ra,0x0
 650:	e56080e7          	jalr	-426(ra) # 4a2 <printint>
 654:	8b4a                	mv	s6,s2
      state = 0;
 656:	4981                	li	s3,0
 658:	bf91                	j	5ac <vprintf+0x60>
        printptr(fd, va_arg(ap, uint64));
 65a:	008b0793          	addi	a5,s6,8
 65e:	f8f43423          	sd	a5,-120(s0)
 662:	000b3983          	ld	s3,0(s6)
  putc(fd, '0');
 666:	03000593          	li	a1,48
 66a:	8556                	mv	a0,s5
 66c:	00000097          	auipc	ra,0x0
 670:	e14080e7          	jalr	-492(ra) # 480 <putc>
  putc(fd, 'x');
 674:	85ea                	mv	a1,s10
 676:	8556                	mv	a0,s5
 678:	00000097          	auipc	ra,0x0
 67c:	e08080e7          	jalr	-504(ra) # 480 <putc>
 680:	4941                	li	s2,16
    putc(fd, digits[x >> (sizeof(uint64) * 8 - 4)]);
 682:	03c9d793          	srli	a5,s3,0x3c
 686:	97de                	add	a5,a5,s7
 688:	0007c583          	lbu	a1,0(a5)
 68c:	8556                	mv	a0,s5
 68e:	00000097          	auipc	ra,0x0
 692:	df2080e7          	jalr	-526(ra) # 480 <putc>
  for (i = 0; i < (sizeof(uint64) * 2); i++, x <<= 4)
 696:	0992                	slli	s3,s3,0x4
 698:	397d                	addiw	s2,s2,-1
 69a:	fe0914e3          	bnez	s2,682 <vprintf+0x136>
        printptr(fd, va_arg(ap, uint64));
 69e:	f8843b03          	ld	s6,-120(s0)
      state = 0;
 6a2:	4981                	li	s3,0
 6a4:	b721                	j	5ac <vprintf+0x60>
        s = va_arg(ap, char*);
 6a6:	008b0993          	addi	s3,s6,8
 6aa:	000b3903          	ld	s2,0(s6)
        if(s == 0)
 6ae:	02090163          	beqz	s2,6d0 <vprintf+0x184>
        while(*s != 0){
 6b2:	00094583          	lbu	a1,0(s2)
 6b6:	c9a1                	beqz	a1,706 <vprintf+0x1ba>
          putc(fd, *s);
 6b8:	8556                	mv	a0,s5
 6ba:	00000097          	auipc	ra,0x0
 6be:	dc6080e7          	jalr	-570(ra) # 480 <putc>
          s++;
 6c2:	0905                	addi	s2,s2,1
        while(*s != 0){
 6c4:	00094583          	lbu	a1,0(s2)
 6c8:	f9e5                	bnez	a1,6b8 <vprintf+0x16c>
        s = va_arg(ap, char*);
 6ca:	8b4e                	mv	s6,s3
      state = 0;
 6cc:	4981                	li	s3,0
 6ce:	bdf9                	j	5ac <vprintf+0x60>
          s = "(null)";
 6d0:	00000917          	auipc	s2,0x0
 6d4:	27890913          	addi	s2,s2,632 # 948 <malloc+0x132>
        while(*s != 0){
 6d8:	02800593          	li	a1,40
 6dc:	bff1                	j	6b8 <vprintf+0x16c>
        putc(fd, va_arg(ap, uint));
 6de:	008b0913          	addi	s2,s6,8
 6e2:	000b4583          	lbu	a1,0(s6)
 6e6:	8556                	mv	a0,s5
 6e8:	00000097          	auipc	ra,0x0
 6ec:	d98080e7          	jalr	-616(ra) # 480 <putc>
 6f0:	8b4a                	mv	s6,s2
      state = 0;
 6f2:	4981                	li	s3,0
 6f4:	bd65                	j	5ac <vprintf+0x60>
        putc(fd, c);
 6f6:	85d2                	mv	a1,s4
 6f8:	8556                	mv	a0,s5
 6fa:	00000097          	auipc	ra,0x0
 6fe:	d86080e7          	jalr	-634(ra) # 480 <putc>
      state = 0;
 702:	4981                	li	s3,0
 704:	b565                	j	5ac <vprintf+0x60>
        s = va_arg(ap, char*);
 706:	8b4e                	mv	s6,s3
      state = 0;
 708:	4981                	li	s3,0
 70a:	b54d                	j	5ac <vprintf+0x60>
    }
  }
}
 70c:	70e6                	ld	ra,120(sp)
 70e:	7446                	ld	s0,112(sp)
 710:	74a6                	ld	s1,104(sp)
 712:	7906                	ld	s2,96(sp)
 714:	69e6                	ld	s3,88(sp)
 716:	6a46                	ld	s4,80(sp)
 718:	6aa6                	ld	s5,72(sp)
 71a:	6b06                	ld	s6,64(sp)
 71c:	7be2                	ld	s7,56(sp)
 71e:	7c42                	ld	s8,48(sp)
 720:	7ca2                	ld	s9,40(sp)
 722:	7d02                	ld	s10,32(sp)
 724:	6de2                	ld	s11,24(sp)
 726:	6109                	addi	sp,sp,128
 728:	8082                	ret

000000000000072a <fprintf>:

void
fprintf(int fd, const char *fmt, ...)
{
 72a:	715d                	addi	sp,sp,-80
 72c:	ec06                	sd	ra,24(sp)
 72e:	e822                	sd	s0,16(sp)
 730:	1000                	addi	s0,sp,32
 732:	e010                	sd	a2,0(s0)
 734:	e414                	sd	a3,8(s0)
 736:	e818                	sd	a4,16(s0)
 738:	ec1c                	sd	a5,24(s0)
 73a:	03043023          	sd	a6,32(s0)
 73e:	03143423          	sd	a7,40(s0)
  va_list ap;

  va_start(ap, fmt);
 742:	fe843423          	sd	s0,-24(s0)
  vprintf(fd, fmt, ap);
 746:	8622                	mv	a2,s0
 748:	00000097          	auipc	ra,0x0
 74c:	e04080e7          	jalr	-508(ra) # 54c <vprintf>
}
 750:	60e2                	ld	ra,24(sp)
 752:	6442                	ld	s0,16(sp)
 754:	6161                	addi	sp,sp,80
 756:	8082                	ret

0000000000000758 <printf>:

void
printf(const char *fmt, ...)
{
 758:	711d                	addi	sp,sp,-96
 75a:	ec06                	sd	ra,24(sp)
 75c:	e822                	sd	s0,16(sp)
 75e:	1000                	addi	s0,sp,32
 760:	e40c                	sd	a1,8(s0)
 762:	e810                	sd	a2,16(s0)
 764:	ec14                	sd	a3,24(s0)
 766:	f018                	sd	a4,32(s0)
 768:	f41c                	sd	a5,40(s0)
 76a:	03043823          	sd	a6,48(s0)
 76e:	03143c23          	sd	a7,56(s0)
  va_list ap;

  va_start(ap, fmt);
 772:	00840613          	addi	a2,s0,8
 776:	fec43423          	sd	a2,-24(s0)
  vprintf(1, fmt, ap);
 77a:	85aa                	mv	a1,a0
 77c:	4505                	li	a0,1
 77e:	00000097          	auipc	ra,0x0
 782:	dce080e7          	jalr	-562(ra) # 54c <vprintf>
}
 786:	60e2                	ld	ra,24(sp)
 788:	6442                	ld	s0,16(sp)
 78a:	6125                	addi	sp,sp,96
 78c:	8082                	ret

000000000000078e <free>:
static Header base;
static Header *freep;

void
free(void *ap)
{
 78e:	1141                	addi	sp,sp,-16
 790:	e422                	sd	s0,8(sp)
 792:	0800                	addi	s0,sp,16
  Header *bp, *p;

  bp = (Header*)ap - 1;
 794:	ff050693          	addi	a3,a0,-16
  for(p = freep; !(bp > p && bp < p->s.ptr); p = p->s.ptr)
 798:	00000797          	auipc	a5,0x0
 79c:	1d07b783          	ld	a5,464(a5) # 968 <freep>
 7a0:	a805                	j	7d0 <free+0x42>
    if(p >= p->s.ptr && (bp > p || bp < p->s.ptr))
      break;
  if(bp + bp->s.size == p->s.ptr){
    bp->s.size += p->s.ptr->s.size;
 7a2:	4618                	lw	a4,8(a2)
 7a4:	9db9                	addw	a1,a1,a4
 7a6:	feb52c23          	sw	a1,-8(a0)
    bp->s.ptr = p->s.ptr->s.ptr;
 7aa:	6398                	ld	a4,0(a5)
 7ac:	6318                	ld	a4,0(a4)
 7ae:	fee53823          	sd	a4,-16(a0)
 7b2:	a091                	j	7f6 <free+0x68>
  } else
    bp->s.ptr = p->s.ptr;
  if(p + p->s.size == bp){
    p->s.size += bp->s.size;
 7b4:	ff852703          	lw	a4,-8(a0)
 7b8:	9e39                	addw	a2,a2,a4
 7ba:	c790                	sw	a2,8(a5)
    p->s.ptr = bp->s.ptr;
 7bc:	ff053703          	ld	a4,-16(a0)
 7c0:	e398                	sd	a4,0(a5)
 7c2:	a099                	j	808 <free+0x7a>
    if(p >= p->s.ptr && (bp > p || bp < p->s.ptr))
 7c4:	6398                	ld	a4,0(a5)
 7c6:	00e7e463          	bltu	a5,a4,7ce <free+0x40>
 7ca:	00e6ea63          	bltu	a3,a4,7de <free+0x50>
{
 7ce:	87ba                	mv	a5,a4
  for(p = freep; !(bp > p && bp < p->s.ptr); p = p->s.ptr)
 7d0:	fed7fae3          	bgeu	a5,a3,7c4 <free+0x36>
 7d4:	6398                	ld	a4,0(a5)
 7d6:	00e6e463          	bltu	a3,a4,7de <free+0x50>
    if(p >= p->s.ptr && (bp > p || bp < p->s.ptr))
 7da:	fee7eae3          	bltu	a5,a4,7ce <free+0x40>
  if(bp + bp->s.size == p->s.ptr){
 7de:	ff852583          	lw	a1,-8(a0)
 7e2:	6390                	ld	a2,0(a5)
 7e4:	02059713          	slli	a4,a1,0x20
 7e8:	9301                	srli	a4,a4,0x20
 7ea:	0712                	slli	a4,a4,0x4
 7ec:	9736                	add	a4,a4,a3
 7ee:	fae60ae3          	beq	a2,a4,7a2 <free+0x14>
    bp->s.ptr = p->s.ptr;
 7f2:	fec53823          	sd	a2,-16(a0)
  if(p + p->s.size == bp){
 7f6:	4790                	lw	a2,8(a5)
 7f8:	02061713          	slli	a4,a2,0x20
 7fc:	9301                	srli	a4,a4,0x20
 7fe:	0712                	slli	a4,a4,0x4
 800:	973e                	add	a4,a4,a5
 802:	fae689e3          	beq	a3,a4,7b4 <free+0x26>
  } else
    p->s.ptr = bp;
 806:	e394                	sd	a3,0(a5)
  freep = p;
 808:	00000717          	auipc	a4,0x0
 80c:	16f73023          	sd	a5,352(a4) # 968 <freep>
}
 810:	6422                	ld	s0,8(sp)
 812:	0141                	addi	sp,sp,16
 814:	8082                	ret

0000000000000816 <malloc>:
  return freep;
}

void*
malloc(uint nbytes)
{
 816:	7139                	addi	sp,sp,-64
 818:	fc06                	sd	ra,56(sp)
 81a:	f822                	sd	s0,48(sp)
 81c:	f426                	sd	s1,40(sp)
 81e:	f04a                	sd	s2,32(sp)
 820:	ec4e                	sd	s3,24(sp)
 822:	e852                	sd	s4,16(sp)
 824:	e456                	sd	s5,8(sp)
 826:	e05a                	sd	s6,0(sp)
 828:	0080                	addi	s0,sp,64
  Header *p, *prevp;
  uint nunits;

  nunits = (nbytes + sizeof(Header) - 1)/sizeof(Header) + 1;
 82a:	02051493          	slli	s1,a0,0x20
 82e:	9081                	srli	s1,s1,0x20
 830:	04bd                	addi	s1,s1,15
 832:	8091                	srli	s1,s1,0x4
 834:	0014899b          	addiw	s3,s1,1
 838:	0485                	addi	s1,s1,1
  if((prevp = freep) == 0){
 83a:	00000517          	auipc	a0,0x0
 83e:	12e53503          	ld	a0,302(a0) # 968 <freep>
 842:	c515                	beqz	a0,86e <malloc+0x58>
    base.s.ptr = freep = prevp = &base;
    base.s.size = 0;
  }
  for(p = prevp->s.ptr; ; prevp = p, p = p->s.ptr){
 844:	611c                	ld	a5,0(a0)
    if(p->s.size >= nunits){
 846:	4798                	lw	a4,8(a5)
 848:	02977f63          	bgeu	a4,s1,886 <malloc+0x70>
 84c:	8a4e                	mv	s4,s3
 84e:	0009871b          	sext.w	a4,s3
 852:	6685                	lui	a3,0x1
 854:	00d77363          	bgeu	a4,a3,85a <malloc+0x44>
 858:	6a05                	lui	s4,0x1
 85a:	000a0b1b          	sext.w	s6,s4
  p = sbrk(nu * sizeof(Header));
 85e:	004a1a1b          	slliw	s4,s4,0x4
        p->s.size = nunits;
      }
      freep = prevp;
      return (void*)(p + 1);
    }
    if(p == freep)
 862:	00000917          	auipc	s2,0x0
 866:	10690913          	addi	s2,s2,262 # 968 <freep>
  if(p == (char*)-1)
 86a:	5afd                	li	s5,-1
 86c:	a88d                	j	8de <malloc+0xc8>
    base.s.ptr = freep = prevp = &base;
 86e:	00000797          	auipc	a5,0x0
 872:	10278793          	addi	a5,a5,258 # 970 <base>
 876:	00000717          	auipc	a4,0x0
 87a:	0ef73923          	sd	a5,242(a4) # 968 <freep>
 87e:	e39c                	sd	a5,0(a5)
    base.s.size = 0;
 880:	0007a423          	sw	zero,8(a5)
    if(p->s.size >= nunits){
 884:	b7e1                	j	84c <malloc+0x36>
      if(p->s.size == nunits)
 886:	02e48b63          	beq	s1,a4,8bc <malloc+0xa6>
        p->s.size -= nunits;
 88a:	4137073b          	subw	a4,a4,s3
 88e:	c798                	sw	a4,8(a5)
        p += p->s.size;
 890:	1702                	slli	a4,a4,0x20
 892:	9301                	srli	a4,a4,0x20
 894:	0712                	slli	a4,a4,0x4
 896:	97ba                	add	a5,a5,a4
        p->s.size = nunits;
 898:	0137a423          	sw	s3,8(a5)
      freep = prevp;
 89c:	00000717          	auipc	a4,0x0
 8a0:	0ca73623          	sd	a0,204(a4) # 968 <freep>
      return (void*)(p + 1);
 8a4:	01078513          	addi	a0,a5,16
      if((p = morecore(nunits)) == 0)
        return 0;
  }
}
 8a8:	70e2                	ld	ra,56(sp)
 8aa:	7442                	ld	s0,48(sp)
 8ac:	74a2                	ld	s1,40(sp)
 8ae:	7902                	ld	s2,32(sp)
 8b0:	69e2                	ld	s3,24(sp)
 8b2:	6a42                	ld	s4,16(sp)
 8b4:	6aa2                	ld	s5,8(sp)
 8b6:	6b02                	ld	s6,0(sp)
 8b8:	6121                	addi	sp,sp,64
 8ba:	8082                	ret
        prevp->s.ptr = p->s.ptr;
 8bc:	6398                	ld	a4,0(a5)
 8be:	e118                	sd	a4,0(a0)
 8c0:	bff1                	j	89c <malloc+0x86>
  hp->s.size = nu;
 8c2:	01652423          	sw	s6,8(a0)
  free((void*)(hp + 1));
 8c6:	0541                	addi	a0,a0,16
 8c8:	00000097          	auipc	ra,0x0
 8cc:	ec6080e7          	jalr	-314(ra) # 78e <free>
  return freep;
 8d0:	00093503          	ld	a0,0(s2)
      if((p = morecore(nunits)) == 0)
 8d4:	d971                	beqz	a0,8a8 <malloc+0x92>
  for(p = prevp->s.ptr; ; prevp = p, p = p->s.ptr){
 8d6:	611c                	ld	a5,0(a0)
    if(p->s.size >= nunits){
 8d8:	4798                	lw	a4,8(a5)
 8da:	fa9776e3          	bgeu	a4,s1,886 <malloc+0x70>
    if(p == freep)
 8de:	00093703          	ld	a4,0(s2)
 8e2:	853e                	mv	a0,a5
 8e4:	fef719e3          	bne	a4,a5,8d6 <malloc+0xc0>
  p = sbrk(nu * sizeof(Header));
 8e8:	8552                	mv	a0,s4
 8ea:	00000097          	auipc	ra,0x0
 8ee:	b6e080e7          	jalr	-1170(ra) # 458 <sbrk>
  if(p == (char*)-1)
 8f2:	fd5518e3          	bne	a0,s5,8c2 <malloc+0xac>
        return 0;
 8f6:	4501                	li	a0,0
 8f8:	bf45                	j	8a8 <malloc+0x92>
